target datalayout = "e-m:e-p270:32:32-p271:32:32-p272:64:64-i64:64-i128:128-f80:128-n8:16:32:64-S128"
target triple = "x86_64-pc-linux-gnu"

%"struct.llvm::Align" = type { i8 }
%"struct.llvm::DataLayout::PrimitiveSpec" = type <{ i32, %"struct.llvm::Align", %"struct.llvm::Align", [2 x i8] }>

; Function Attrs: mustprogress nounwind uwtable
define linkonce_odr hidden noundef zeroext i1 @_ZN4llvmeqENS_5AlignES0_(i8 %0, i8 %1) #0 comdat {
  %3 = alloca %"struct.llvm::Align", align 1
  %4 = alloca %"struct.llvm::Align", align 1
  %5 = getelementptr inbounds nuw %"struct.llvm::Align", ptr %3, i32 0, i32 0
  store i8 %0, ptr %5, align 1
  %6 = getelementptr inbounds nuw %"struct.llvm::Align", ptr %4, i32 0, i32 0
  store i8 %1, ptr %6, align 1
  %7 = getelementptr inbounds nuw %"struct.llvm::Align", ptr %3, i32 0, i32 0
  %8 = load i8, ptr %7, align 1
  %9 = zext i8 %8 to i32
  %10 = getelementptr inbounds nuw %"struct.llvm::Align", ptr %4, i32 0, i32 0
  %11 = load i8, ptr %10, align 1
  %12 = zext i8 %11 to i32
  %13 = icmp eq i32 %9, %12
  ret i1 %13
}

; Function Attrs: mustprogress nounwind uwtable
define dso_local noundef zeroext i1 @_ZNK4llvm10DataLayout13PrimitiveSpeceqERKS1_(ptr noundef nonnull align 4 dereferenceable(6) %0, ptr noundef nonnull align 4 dereferenceable(6) %1) #0 align 2 {
  %3 = alloca ptr, align 8
  %4 = alloca ptr, align 8
  %5 = alloca %"struct.llvm::Align", align 1
  %6 = alloca %"struct.llvm::Align", align 1
  %7 = alloca %"struct.llvm::Align", align 1
  %8 = alloca %"struct.llvm::Align", align 1
  store ptr %0, ptr %3, align 8
  store ptr %1, ptr %4, align 8
  %9 = load ptr, ptr %3, align 8
  %10 = getelementptr inbounds nuw %"struct.llvm::DataLayout::PrimitiveSpec", ptr %9, i32 0, i32 0
  %11 = load i32, ptr %10, align 4
  %12 = load ptr, ptr %4, align 8
  %13 = getelementptr inbounds nuw %"struct.llvm::DataLayout::PrimitiveSpec", ptr %12, i32 0, i32 0
  %14 = load i32, ptr %13, align 4
  %15 = icmp eq i32 %11, %14
  br i1 %15, label %16, label %34

16:                                               ; preds = %2
  %17 = getelementptr inbounds nuw %"struct.llvm::DataLayout::PrimitiveSpec", ptr %9, i32 0, i32 1
  call void @llvm.memcpy.p0.p0.i64(ptr align 1 %5, ptr align 4 %17, i64 1, i1 false)
  %18 = load ptr, ptr %4, align 8
  %19 = getelementptr inbounds nuw %"struct.llvm::DataLayout::PrimitiveSpec", ptr %18, i32 0, i32 1
  call void @llvm.memcpy.p0.p0.i64(ptr align 1 %6, ptr align 4 %19, i64 1, i1 false)
  %20 = getelementptr inbounds nuw %"struct.llvm::Align", ptr %5, i32 0, i32 0
  %21 = load i8, ptr %20, align 1
  %22 = getelementptr inbounds nuw %"struct.llvm::Align", ptr %6, i32 0, i32 0
  %23 = load i8, ptr %22, align 1
  %24 = call noundef zeroext i1 @_ZN4llvmeqENS_5AlignES0_(i8 %21, i8 %23)
  br i1 %24, label %25, label %34

25:                                               ; preds = %16
  %26 = getelementptr inbounds nuw %"struct.llvm::DataLayout::PrimitiveSpec", ptr %9, i32 0, i32 2
  call void @llvm.memcpy.p0.p0.i64(ptr align 1 %7, ptr align 1 %26, i64 1, i1 false)
  %27 = load ptr, ptr %4, align 8
  %28 = getelementptr inbounds nuw %"struct.llvm::DataLayout::PrimitiveSpec", ptr %27, i32 0, i32 2
  call void @llvm.memcpy.p0.p0.i64(ptr align 1 %8, ptr align 1 %28, i64 1, i1 false)
  %29 = getelementptr inbounds nuw %"struct.llvm::Align", ptr %7, i32 0, i32 0
  %30 = load i8, ptr %29, align 1
  %31 = getelementptr inbounds nuw %"struct.llvm::Align", ptr %8, i32 0, i32 0
  %32 = load i8, ptr %31, align 1
  %33 = call noundef zeroext i1 @_ZN4llvmeqENS_5AlignES0_(i8 %30, i8 %32)
  br label %34

34:                                               ; preds = %25, %16, %2
  %35 = phi i1 [ false, %16 ], [ false, %2 ], [ %33, %25 ]
  ret i1 %35
}