; Function Attrs: mustprogress nofree norecurse nosync nounwind willreturn memory(argmem: read) uwtable
define dso_local noundef zeroext i1 @_ZNK4llvm10DataLayout13PrimitiveSpeceqERKS1_(ptr noundef nonnull readonly align 4 captures(none) dereferenceable(6) %0, ptr noundef nonnull readonly align 4 captures(none) dereferenceable(6) %1) local_unnamed_addr #3 align 2 {
  %3 = load i32, ptr %0, align 4
  %4 = load i32, ptr %1, align 4
  %5 = icmp eq i32 %3, %4
  br i1 %5, label %6, label %14

6:                                                ; preds = %2
  %7 = getelementptr inbounds nuw i8, ptr %0, i64 4
  %.sroa.03.0.copyload = load i8, ptr %7, align 4
  %8 = getelementptr inbounds nuw i8, ptr %1, i64 4
  %.sroa.02.0.copyload = load i8, ptr %8, align 4
  %9 = icmp eq i8 %.sroa.03.0.copyload, %.sroa.02.0.copyload
  br i1 %9, label %10, label %14

10:                                               ; preds = %6
  %11 = getelementptr inbounds nuw i8, ptr %0, i64 5
  %.sroa.01.0.copyload = load i8, ptr %11, align 1
  %12 = getelementptr inbounds nuw i8, ptr %1, i64 5
  %.sroa.0.0.copyload = load i8, ptr %12, align 1
  %13 = icmp eq i8 %.sroa.01.0.copyload, %.sroa.0.0.copyload
  br label %14

14:                                               ; preds = %10, %6, %2
  %15 = phi i1 [ false, %6 ], [ false, %2 ], [ %13, %10 ]
  ret i1 %15
}